; Function Attrs: mustprogress uwtable
define hidden void @_ZNK3sat15model_converter7displayERSo(ptr noundef nonnull readonly align 8 captures(none) dereferenceable(40) %0, ptr noundef nonnull align 8 dereferenceable(8) %1) local_unnamed_addr #3 align 2 {
  %3 = tail call noundef nonnull align 8 dereferenceable(8) ptr @_ZSt16__ostream_insertIcSt11char_traitsIcEERSt13basic_ostreamIT_T0_ES6_PKS3_l(ptr noundef nonnull align 8 dereferenceable(8) %1, ptr noundef nonnull @.str.16, i64 noundef 22)
  %4 = load ptr, ptr %0, align 8, !tbaa !3
  %5 = icmp eq ptr %4, null
  br i1 %5, label %._crit_edge, label %_ZNK6vectorIN3sat15model_converter5entryELb1EjE3endEv.exit

_ZNK6vectorIN3sat15model_converter5entryELb1EjE3endEv.exit: ; preds = %2
  %6 = getelementptr inbounds i8, ptr %4, i64 -4
  %7 = load i32, ptr %6, align 4, !tbaa !9
  %8 = zext i32 %7 to i64
  %9 = getelementptr inbounds nuw %"class.sat::model_converter::entry", ptr %4, i64 %8
  %.not13 = icmp eq i32 %7, 0
  br i1 %.not13, label %._crit_edge, label %.lr.ph

._crit_edge:                                      ; preds = %13, %2, %_ZNK6vectorIN3sat15model_converter5entryELb1EjE3endEv.exit
  %10 = tail call noundef nonnull align 8 dereferenceable(8) ptr @_ZSt16__ostream_insertIcSt11char_traitsIcEERSt13basic_ostreamIT_T0_ES6_PKS3_l(ptr noundef nonnull align 8 dereferenceable(8) %1, ptr noundef nonnull @.str.17, i64 noundef 2)
  ret void

.lr.ph:                                           ; preds = %_ZNK6vectorIN3sat15model_converter5entryELb1EjE3endEv.exit, %13
  %.015 = phi i1 [ false, %13 ], [ true, %_ZNK6vectorIN3sat15model_converter5entryELb1EjE3endEv.exit ]
  %.01214 = phi ptr [ %15, %13 ], [ %4, %_ZNK6vectorIN3sat15model_converter5entryELb1EjE3endEv.exit ]
  br i1 %.015, label %13, label %11

11:                                               ; preds = %.lr.ph
  %12 = tail call noundef nonnull align 8 dereferenceable(8) ptr @_ZSt16__ostream_insertIcSt11char_traitsIcEERSt13basic_ostreamIT_T0_ES6_PKS3_l(ptr noundef nonnull align 8 dereferenceable(8) %1, ptr noundef nonnull @.str.1, i64 noundef 1)
  br label %13

13:                                               ; preds = %.lr.ph, %11
  %14 = tail call noundef nonnull align 8 dereferenceable(8) ptr @_ZNK3sat15model_converter7displayERSoRKNS0_5entryE(ptr nonnull align 8 poison, ptr noundef nonnull align 8 dereferenceable(8) %1, ptr noundef nonnull align 8 dereferenceable(32) %.01214)
  %15 = getelementptr inbounds nuw i8, ptr %.01214, i64 32
  %.not = icmp eq ptr %15, %9
  br i1 %.not, label %._crit_edge, label %.lr.ph
}